; ModuleID = '53/984.c'
source_filename = "53/984.c"
target datalayout = "e-m:e-p270:32:32-p271:32:32-p272:64:64-i64:64-f80:128-n8:16:32:64-S128"
target triple = "x86_64-pc-linux-gnu"

@.str = private unnamed_addr constant [3 x i8] c"%d\00", align 1
@.str.1 = private unnamed_addr constant [2 x i8] c",\00", align 1

; Function Attrs: noinline nounwind uwtable
define dso_local i32 @main() #0 {
  %1 = alloca i32, align 4
  %2 = alloca i32, align 4
  %3 = alloca i32, align 4
  %4 = alloca i32, align 4
  %5 = alloca i32, align 4
  %6 = alloca [300 x i32], align 16
  %7 = alloca [300 x i32], align 16
  %8 = alloca i32, align 4
  %9 = alloca i32, align 4
  %10 = alloca i32, align 4
  %11 = alloca i32, align 4
  %12 = alloca i32, align 4
  %13 = alloca i32, align 4
  store i32 0, i32* %1, align 4
  %14 = call i32 (i8*, ...) @__isoc99_scanf(i8* getelementptr inbounds ([3 x i8], [3 x i8]* @.str, i64 0, i64 0), i32* %3)
  store i32 0, i32* %11, align 4
  store i32 0, i32* %12, align 4
  store i32 0, i32* %8, align 4
  br label %15

15:                                               ; preds = %25, %0
  %16 = load i32, i32* %8, align 4
  %17 = load i32, i32* %3, align 4
  %18 = icmp slt i32 %16, %17
  br i1 %18, label %19, label %28

19:                                               ; preds = %15
  %20 = call i32 (i8*, ...) @__isoc99_scanf(i8* getelementptr inbounds ([3 x i8], [3 x i8]* @.str, i64 0, i64 0), i32* %10)
  %21 = load i32, i32* %10, align 4
  %22 = load i32, i32* %8, align 4
  %23 = sext i32 %22 to i64
  %24 = getelementptr inbounds [300 x i32], [300 x i32]* %6, i64 0, i64 %23
  store i32 %21, i32* %24, align 4
  br label %25

25:                                               ; preds = %19
  %26 = load i32, i32* %8, align 4
  %27 = add nsw i32 %26, 1
  store i32 %27, i32* %8, align 4
  br label %15

28:                                               ; preds = %15
  store i32 0, i32* %8, align 4
  br label %29

29:                                               ; preds = %70, %28
  %30 = load i32, i32* %8, align 4
  %31 = load i32, i32* %3, align 4
  %32 = icmp slt i32 %30, %31
  br i1 %32, label %33, label %73

33:                                               ; preds = %29
  store i32 0, i32* %11, align 4
  %34 = load i32, i32* %8, align 4
  %35 = sub nsw i32 %34, 1
  store i32 %35, i32* %9, align 4
  br label %36

36:                                               ; preds = %53, %33
  %37 = load i32, i32* %9, align 4
  %38 = icmp sge i32 %37, 0
  br i1 %38, label %39, label %56

39:                                               ; preds = %36
  %40 = load i32, i32* %8, align 4
  %41 = sext i32 %40 to i64
  %42 = getelementptr inbounds [300 x i32], [300 x i32]* %6, i64 0, i64 %41
  %43 = load i32, i32* %42, align 4
  %44 = load i32, i32* %9, align 4
  %45 = sext i32 %44 to i64
  %46 = getelementptr inbounds [300 x i32], [300 x i32]* %6, i64 0, i64 %45
  %47 = load i32, i32* %46, align 4
  %48 = icmp eq i32 %43, %47
  br i1 %48, label %49, label %52

49:                                               ; preds = %39
  %50 = load i32, i32* %11, align 4
  %51 = add nsw i32 %50, 1
  store i32 %51, i32* %11, align 4
  br label %52

52:                                               ; preds = %49, %39
  br label %53

53:                                               ; preds = %52
  %54 = load i32, i32* %9, align 4
  %55 = add nsw i32 %54, -1
  store i32 %55, i32* %9, align 4
  br label %36

56:                                               ; preds = %36
  %57 = load i32, i32* %11, align 4
  %58 = icmp eq i32 %57, 0
  br i1 %58, label %59, label %69

59:                                               ; preds = %56
  %60 = load i32, i32* %8, align 4
  %61 = sext i32 %60 to i64
  %62 = getelementptr inbounds [300 x i32], [300 x i32]* %6, i64 0, i64 %61
  %63 = load i32, i32* %62, align 4
  %64 = load i32, i32* %12, align 4
  %65 = sext i32 %64 to i64
  %66 = getelementptr inbounds [300 x i32], [300 x i32]* %7, i64 0, i64 %65
  store i32 %63, i32* %66, align 4
  %67 = load i32, i32* %12, align 4
  %68 = add nsw i32 %67, 1
  store i32 %68, i32* %12, align 4
  br label %69

69:                                               ; preds = %59, %56
  br label %70

70:                                               ; preds = %69
  %71 = load i32, i32* %8, align 4
  %72 = add nsw i32 %71, 1
  store i32 %72, i32* %8, align 4
  br label %29

73:                                               ; preds = %29
  store i32 0, i32* %8, align 4
  br label %74

74:                                               ; preds = %91, %73
  %75 = load i32, i32* %8, align 4
  %76 = load i32, i32* %12, align 4
  %77 = icmp slt i32 %75, %76
  br i1 %77, label %78, label %94

78:                                               ; preds = %74
  %79 = load i32, i32* %8, align 4
  %80 = sext i32 %79 to i64
  %81 = getelementptr inbounds [300 x i32], [300 x i32]* %7, i64 0, i64 %80
  %82 = load i32, i32* %81, align 4
  %83 = call i32 (i8*, ...) @printf(i8* getelementptr inbounds ([3 x i8], [3 x i8]* @.str, i64 0, i64 0), i32 %82)
  %84 = load i32, i32* %8, align 4
  %85 = load i32, i32* %12, align 4
  %86 = sub nsw i32 %85, 1
  %87 = icmp ne i32 %84, %86
  br i1 %87, label %88, label %90

88:                                               ; preds = %78
  %89 = call i32 (i8*, ...) @printf(i8* getelementptr inbounds ([2 x i8], [2 x i8]* @.str.1, i64 0, i64 0))
  br label %90

90:                                               ; preds = %88, %78
  br label %91

91:                                               ; preds = %90
  %92 = load i32, i32* %8, align 4
  %93 = add nsw i32 %92, 1
  store i32 %93, i32* %8, align 4
  br label %74

94:                                               ; preds = %74
  ret i32 0
}

declare dso_local i32 @__isoc99_scanf(i8*, ...) #1

declare dso_local i32 @printf(i8*, ...) #1


!llvm.module.flags = !{!0}
!llvm.ident = !{!1}

!0 = !{i32 1, !"wchar_size", i32 4}
!1 = !{!"clang version 10.0.0-4ubuntu1 "}
